target datalayout = "e-m:e-p270:32:32-p271:32:32-p272:64:64-i64:64-i128:128-f80:128-n8:16:32:64-S128"
target triple = "x86_64-pc-linux-gnu"

; Function Attrs: nounwind uwtable
define dso_local i32 @set_crl_nextupdate(ptr noundef %0, ptr noundef %1, i64 noundef %2, i64 noundef %3, i64 noundef %4) #0 {
  %6 = alloca ptr, align 8
  %7 = alloca ptr, align 8
  %8 = alloca i64, align 8
  %9 = alloca i64, align 8
  %10 = alloca i64, align 8
  %11 = alloca i32, align 4
  %12 = alloca ptr, align 8
  store ptr %0, ptr %6, align 8, !tbaa !71
  store ptr %1, ptr %7, align 8, !tbaa !9
  store i64 %2, ptr %8, align 8, !tbaa !28
  store i64 %3, ptr %9, align 8, !tbaa !28
  store i64 %4, ptr %10, align 8, !tbaa !28
  call void @llvm.lifetime.start.p0(i64 4, ptr %11) #12
  store i32 0, ptr %11, align 4, !tbaa !25
  call void @llvm.lifetime.start.p0(i64 8, ptr %12) #12
  %13 = call ptr @ASN1_TIME_new()
  store ptr %13, ptr %12, align 8, !tbaa !117
  %14 = load ptr, ptr %12, align 8, !tbaa !117
  %15 = icmp eq ptr %14, null
  br i1 %15, label %16, label %17

16:                                               ; preds = %5
  br label %47

17:                                               ; preds = %5
  %18 = load ptr, ptr %7, align 8, !tbaa !9
  %19 = icmp eq ptr %18, null
  br i1 %19, label %20, label %33

20:                                               ; preds = %17
  %21 = load ptr, ptr %12, align 8, !tbaa !117
  %22 = load i64, ptr %8, align 8, !tbaa !28
  %23 = trunc i64 %22 to i32
  %24 = load i64, ptr %9, align 8, !tbaa !28
  %25 = mul nsw i64 %24, 60
  %26 = mul nsw i64 %25, 60
  %27 = load i64, ptr %10, align 8, !tbaa !28
  %28 = add nsw i64 %26, %27
  %29 = call ptr @X509_time_adj_ex(ptr noundef %21, i32 noundef %23, i64 noundef %28, ptr noundef null)
  %30 = icmp eq ptr %29, null
  br i1 %30, label %31, label %32

31:                                               ; preds = %20
  br label %47

32:                                               ; preds = %20
  br label %40

33:                                               ; preds = %17
  %34 = load ptr, ptr %12, align 8, !tbaa !117
  %35 = load ptr, ptr %7, align 8, !tbaa !9
  %36 = call i32 @ASN1_TIME_set_string_X509(ptr noundef %34, ptr noundef %35)
  %37 = icmp ne i32 %36, 0
  br i1 %37, label %39, label %38

38:                                               ; preds = %33
  br label %47

39:                                               ; preds = %33
  br label %40

40:                                               ; preds = %39, %32
  %41 = load ptr, ptr %6, align 8, !tbaa !71
  %42 = load ptr, ptr %12, align 8, !tbaa !117
  %43 = call i32 @X509_CRL_set1_nextUpdate(ptr noundef %41, ptr noundef %42)
  %44 = icmp ne i32 %43, 0
  br i1 %44, label %46, label %45

45:                                               ; preds = %40
  br label %47

46:                                               ; preds = %40
  store i32 1, ptr %11, align 4, !tbaa !25
  br label %47

47:                                               ; preds = %46, %45, %38, %31, %16
  %48 = load ptr, ptr %12, align 8, !tbaa !117
  call void @ASN1_TIME_free(ptr noundef %48)
  %49 = load i32, ptr %11, align 4, !tbaa !25
  call void @llvm.lifetime.end.p0(i64 8, ptr %12) #12
  call void @llvm.lifetime.end.p0(i64 4, ptr %11) #12
  ret i32 %49
}