; Function Attrs: nounwind uwtable
define dso_local range(i32 0, 2) i32 @set_crl_nextupdate(ptr noundef %0, ptr noundef %1, i64 noundef %2, i64 noundef %3, i64 noundef %4) local_unnamed_addr #0 {
  %6 = tail call ptr @ASN1_TIME_new() #27
  %7 = icmp eq ptr %6, null
  br i1 %7, label %20, label %8

8:                                                ; preds = %5
  %9 = icmp eq ptr %1, null
  br i1 %9, label %10, label %16

10:                                               ; preds = %8
  %11 = trunc i64 %2 to i32
  %12 = mul nsw i64 %3, 3600
  %13 = add nsw i64 %12, %4
  %14 = tail call ptr @X509_time_adj_ex(ptr noundef nonnull %6, i32 noundef %11, i64 noundef %13, ptr noundef null) #27
  %15 = icmp eq ptr %14, null
  br i1 %15, label %20, label %18

16:                                               ; preds = %8
  %17 = tail call i32 @ASN1_TIME_set_string_X509(ptr noundef nonnull %6, ptr noundef nonnull %1) #27
  %.not = icmp eq i32 %17, 0
  br i1 %.not, label %20, label %18

18:                                               ; preds = %16, %10
  %19 = tail call i32 @X509_CRL_set1_nextUpdate(ptr noundef %0, ptr noundef nonnull %6) #27
  %.not13 = icmp ne i32 %19, 0
  %spec.select = zext i1 %.not13 to i32
  br label %20

20:                                               ; preds = %18, %16, %10, %5
  %.0 = phi i32 [ 0, %5 ], [ 0, %10 ], [ 0, %16 ], [ %spec.select, %18 ]
  tail call void @ASN1_TIME_free(ptr noundef %6) #27
  ret i32 %.0
}